target datalayout = "e-m:e-p270:32:32-p271:32:32-p272:64:64-i64:64-i128:128-f80:128-n8:16:32:64-S128"
target triple = "x86_64-pc-linux-gnu"

%struct.dtdisc_s_ = type { i32, i32, i32, ptr, ptr, ptr }
%struct.Agdesc_s = type { i8, [3 x i8] }
%struct.Agdisc_s = type { ptr, ptr }
%struct.Agobj_s = type { %struct.Agtag_s, ptr }
%struct.Agtag_s = type { i32, i64 }
%struct.Agraph_s = type { %struct.Agobj_s, %struct.Agdesc_s, %struct.dtlink_s_, %struct.dtlink_s_, ptr, ptr, ptr, ptr, ptr, ptr, ptr, ptr, ptr }
%struct.dtlink_s_ = type { ptr, %union.anon }
%union.anon = type { ptr }
%struct.Agclos_s = type { %struct.Agdisc_s, %struct.Agdstate_s, ptr, [3 x i64], ptr, [3 x ptr], [3 x ptr] }
%struct.Agdstate_s = type { ptr }
%struct.dt_s_ = type { ptr, ptr, %struct.Dtdata_t, ptr, i32, ptr, ptr, ptr }
%struct.Dtdata_t = type { i32, ptr, %union.anon.0, i32, i32, i32 }
%union.anon.0 = type { ptr }

@Ag_subnode_seq_disc = external global %struct.dtdisc_s_, align 8
@Dttree = external global ptr, align 8
@Ag_mainedge_seq_disc = external global %struct.dtdisc_s_, align 8
@Ag_subedge_seq_disc = external global %struct.dtdisc_s_, align 8
@Ag_mainedge_id_disc = external global %struct.dtdisc_s_, align 8
@Ag_subedge_id_disc = external global %struct.dtdisc_s_, align 8
@Ag_subgraph_seq_disc = global { i32, i32, i32, [4 x i8], ptr, ptr, ptr } { i32 0, i32 0, i32 32, [4 x i8] zeroinitializer, ptr null, ptr null, ptr @agraphseqcmpf }, align 8
@Ag_subgraph_id_disc = global { i32, i32, i32, [4 x i8], ptr, ptr, ptr } { i32 0, i32 0, i32 48, [4 x i8] zeroinitializer, ptr null, ptr null, ptr @agraphidcmpf }, align 8

; Function Attrs: nounwind uwtable
define i64 @agnextseq(ptr noundef %0, i32 noundef %1) #0 {
  %3 = alloca ptr, align 8
  %4 = alloca i32, align 4
  store ptr %0, ptr %3, align 8, !tbaa !12
  store i32 %1, ptr %4, align 4, !tbaa !57
  %5 = load ptr, ptr %3, align 8, !tbaa !12
  %6 = getelementptr inbounds nuw %struct.Agraph_s, ptr %5, i32 0, i32 12
  %7 = load ptr, ptr %6, align 8, !tbaa !14
  %8 = getelementptr inbounds nuw %struct.Agclos_s, ptr %7, i32 0, i32 3
  %9 = load i32, ptr %4, align 4, !tbaa !57
  %10 = sext i32 %9 to i64
  %11 = getelementptr inbounds [3 x i64], ptr %8, i64 0, i64 %10
  %12 = load i64, ptr %11, align 8, !tbaa !39
  %13 = add i64 %12, 1
  store i64 %13, ptr %11, align 8, !tbaa !39
  ret i64 %13
}

; Function Attrs: nounwind uwtable
define ptr @agopen1(ptr noundef %0) #0 {
  %2 = alloca ptr, align 8
  %3 = alloca ptr, align 8
  %4 = alloca i64, align 8
  store ptr %0, ptr %2, align 8, !tbaa !12
  call void @llvm.lifetime.start.p0(i64 8, ptr %3) #9
  %5 = load ptr, ptr @Dttree, align 8, !tbaa !46
  %6 = call ptr @agdtopen(ptr noundef @Ag_subnode_seq_disc, ptr noundef %5)
  %7 = load ptr, ptr %2, align 8, !tbaa !12
  %8 = getelementptr inbounds nuw %struct.Agraph_s, ptr %7, i32 0, i32 4
  store ptr %6, ptr %8, align 8, !tbaa !47
  %9 = call ptr @node_set_new()
  %10 = load ptr, ptr %2, align 8, !tbaa !12
  %11 = getelementptr inbounds nuw %struct.Agraph_s, ptr %10, i32 0, i32 5
  store ptr %9, ptr %11, align 8, !tbaa !48
  %12 = load ptr, ptr %2, align 8, !tbaa !12
  %13 = load ptr, ptr %2, align 8, !tbaa !12
  %14 = call ptr @agroot(ptr noundef %13)
  %15 = icmp eq ptr %12, %14
  %16 = select i1 %15, ptr @Ag_mainedge_seq_disc, ptr @Ag_subedge_seq_disc
  %17 = load ptr, ptr @Dttree, align 8, !tbaa !46
  %18 = call ptr @agdtopen(ptr noundef %16, ptr noundef %17)
  %19 = load ptr, ptr %2, align 8, !tbaa !12
  %20 = getelementptr inbounds nuw %struct.Agraph_s, ptr %19, i32 0, i32 6
  store ptr %18, ptr %20, align 8, !tbaa !49
  %21 = load ptr, ptr %2, align 8, !tbaa !12
  %22 = load ptr, ptr %2, align 8, !tbaa !12
  %23 = call ptr @agroot(ptr noundef %22)
  %24 = icmp eq ptr %21, %23
  %25 = select i1 %24, ptr @Ag_mainedge_id_disc, ptr @Ag_subedge_id_disc
  %26 = load ptr, ptr @Dttree, align 8, !tbaa !46
  %27 = call ptr @agdtopen(ptr noundef %25, ptr noundef %26)
  %28 = load ptr, ptr %2, align 8, !tbaa !12
  %29 = getelementptr inbounds nuw %struct.Agraph_s, ptr %28, i32 0, i32 7
  store ptr %27, ptr %29, align 8, !tbaa !50
  %30 = load ptr, ptr @Dttree, align 8, !tbaa !46
  %31 = call ptr @agdtopen(ptr noundef @Ag_subgraph_seq_disc, ptr noundef %30)
  %32 = load ptr, ptr %2, align 8, !tbaa !12
  %33 = getelementptr inbounds nuw %struct.Agraph_s, ptr %32, i32 0, i32 8
  store ptr %31, ptr %33, align 8, !tbaa !51
  %34 = load ptr, ptr @Dttree, align 8, !tbaa !46
  %35 = call ptr @agdtopen(ptr noundef @Ag_subgraph_id_disc, ptr noundef %34)
  %36 = load ptr, ptr %2, align 8, !tbaa !12
  %37 = getelementptr inbounds nuw %struct.Agraph_s, ptr %36, i32 0, i32 9
  store ptr %35, ptr %37, align 8, !tbaa !52
  %38 = load ptr, ptr %2, align 8, !tbaa !12
  %39 = call ptr @agparent(ptr noundef %38)
  store ptr %39, ptr %3, align 8, !tbaa !12
  %40 = load ptr, ptr %3, align 8, !tbaa !12
  %41 = icmp ne ptr %40, null
  br i1 %41, label %42, label %75

42:                                               ; preds = %1
  call void @llvm.lifetime.start.p0(i64 8, ptr %4) #9
  %43 = load ptr, ptr %3, align 8, !tbaa !12
  %44 = call i64 @agnextseq(ptr noundef %43, i32 noundef 0)
  store i64 %44, ptr %4, align 8, !tbaa !39
  %45 = load i64, ptr %4, align 8, !tbaa !39
  %46 = and i64 %45, 268435455
  %47 = trunc i64 %46 to i32
  %48 = load ptr, ptr %2, align 8, !tbaa !12
  %49 = getelementptr inbounds nuw %struct.Agobj_s, ptr %48, i32 0, i32 0
  %50 = load i32, ptr %49, align 8
  %51 = and i32 %47, 268435455
  %52 = shl i32 %51, 4
  %53 = and i32 %50, 15
  %54 = or i32 %53, %52
  store i32 %54, ptr %49, align 8
  %55 = load ptr, ptr %3, align 8, !tbaa !12
  %56 = getelementptr inbounds nuw %struct.Agraph_s, ptr %55, i32 0, i32 8
  %57 = load ptr, ptr %56, align 8, !tbaa !51
  %58 = getelementptr inbounds nuw %struct.dt_s_, ptr %57, i32 0, i32 0
  %59 = load ptr, ptr %58, align 8, !tbaa !53
  %60 = load ptr, ptr %3, align 8, !tbaa !12
  %61 = getelementptr inbounds nuw %struct.Agraph_s, ptr %60, i32 0, i32 8
  %62 = load ptr, ptr %61, align 8, !tbaa !51
  %63 = load ptr, ptr %2, align 8, !tbaa !12
  %64 = call ptr %59(ptr noundef %62, ptr noundef %63, i32 noundef 1)
  %65 = load ptr, ptr %3, align 8, !tbaa !12
  %66 = getelementptr inbounds nuw %struct.Agraph_s, ptr %65, i32 0, i32 9
  %67 = load ptr, ptr %66, align 8, !tbaa !52
  %68 = getelementptr inbounds nuw %struct.dt_s_, ptr %67, i32 0, i32 0
  %69 = load ptr, ptr %68, align 8, !tbaa !53
  %70 = load ptr, ptr %3, align 8, !tbaa !12
  %71 = getelementptr inbounds nuw %struct.Agraph_s, ptr %70, i32 0, i32 9
  %72 = load ptr, ptr %71, align 8, !tbaa !52
  %73 = load ptr, ptr %2, align 8, !tbaa !12
  %74 = call ptr %69(ptr noundef %72, ptr noundef %73, i32 noundef 1)
  call void @llvm.lifetime.end.p0(i64 8, ptr %4) #9
  br label %75

75:                                               ; preds = %42, %1
  %76 = load ptr, ptr %3, align 8, !tbaa !12
  %77 = icmp ne ptr %76, null
  br i1 %77, label %78, label %86

78:                                               ; preds = %75
  %79 = load ptr, ptr %3, align 8, !tbaa !12
  %80 = getelementptr inbounds nuw %struct.Agraph_s, ptr %79, i32 0, i32 1
  %81 = load i8, ptr %80, align 8
  %82 = lshr i8 %81, 5
  %83 = and i8 %82, 1
  %84 = zext i8 %83 to i32
  %85 = icmp ne i32 %84, 0
  br i1 %85, label %86, label %88

86:                                               ; preds = %78, %75
  %87 = load ptr, ptr %2, align 8, !tbaa !12
  call void @agraphattr_init(ptr noundef %87)
  br label %88

88:                                               ; preds = %86, %78
  %89 = load ptr, ptr %2, align 8, !tbaa !12
  %90 = load ptr, ptr %2, align 8, !tbaa !12
  call void @agmethod_init(ptr noundef %89, ptr noundef %90)
  %91 = load ptr, ptr %2, align 8, !tbaa !12
  call void @llvm.lifetime.end.p0(i64 8, ptr %3) #9
  ret ptr %91
}