; Function Attrs: nounwind uwtable
define noundef ptr @agopen1(ptr noundef returned initializes((64, 80)) %0) local_unnamed_addr #0 {
  %2 = load ptr, ptr @Dttree, align 8, !tbaa !38
  %3 = tail call ptr @agdtopen(ptr noundef nonnull @Ag_subnode_seq_disc, ptr noundef %2) #11
  %4 = getelementptr inbounds nuw i8, ptr %0, i64 64
  store ptr %3, ptr %4, align 8, !tbaa !39
  %5 = tail call ptr @node_set_new() #11
  %6 = getelementptr inbounds nuw i8, ptr %0, i64 72
  store ptr %5, ptr %6, align 8, !tbaa !40
  %7 = tail call ptr @agroot(ptr noundef %0) #11
  %8 = icmp eq ptr %0, %7
  %9 = select i1 %8, ptr @Ag_mainedge_seq_disc, ptr @Ag_subedge_seq_disc
  %10 = load ptr, ptr @Dttree, align 8, !tbaa !38
  %11 = tail call ptr @agdtopen(ptr noundef nonnull %9, ptr noundef %10) #11
  %12 = getelementptr inbounds nuw i8, ptr %0, i64 80
  store ptr %11, ptr %12, align 8, !tbaa !41
  %13 = tail call ptr @agroot(ptr noundef %0) #11
  %14 = icmp eq ptr %0, %13
  %15 = select i1 %14, ptr @Ag_mainedge_id_disc, ptr @Ag_subedge_id_disc
  %16 = load ptr, ptr @Dttree, align 8, !tbaa !38
  %17 = tail call ptr @agdtopen(ptr noundef nonnull %15, ptr noundef %16) #11
  %18 = getelementptr inbounds nuw i8, ptr %0, i64 88
  store ptr %17, ptr %18, align 8, !tbaa !42
  %19 = load ptr, ptr @Dttree, align 8, !tbaa !38
  %20 = tail call ptr @agdtopen(ptr noundef nonnull @Ag_subgraph_seq_disc, ptr noundef %19) #11
  %21 = getelementptr inbounds nuw i8, ptr %0, i64 96
  store ptr %20, ptr %21, align 8, !tbaa !43
  %22 = load ptr, ptr @Dttree, align 8, !tbaa !38
  %23 = tail call ptr @agdtopen(ptr noundef nonnull @Ag_subgraph_id_disc, ptr noundef %22) #11
  %24 = getelementptr inbounds nuw i8, ptr %0, i64 104
  store ptr %23, ptr %24, align 8, !tbaa !44
  %25 = tail call ptr @agparent(ptr noundef %0) #11
  %.not = icmp eq ptr %25, null
  br i1 %.not, label %.critedge, label %26

26:                                               ; preds = %1
  %27 = getelementptr inbounds nuw i8, ptr %25, i64 128
  %28 = load ptr, ptr %27, align 8, !tbaa !18
  %29 = getelementptr inbounds nuw i8, ptr %28, i64 32
  %30 = load i64, ptr %29, align 8, !tbaa !36
  %31 = add i64 %30, 1
  store i64 %31, ptr %29, align 8, !tbaa !36
  %32 = trunc i64 %31 to i32
  %33 = load i32, ptr %0, align 8
  %34 = shl i32 %32, 4
  %35 = and i32 %33, 15
  %36 = or disjoint i32 %35, %34
  store i32 %36, ptr %0, align 8
  %37 = getelementptr inbounds nuw i8, ptr %25, i64 96
  %38 = load ptr, ptr %37, align 8, !tbaa !43
  %39 = load ptr, ptr %38, align 8, !tbaa !45
  %40 = tail call ptr %39(ptr noundef nonnull %38, ptr noundef nonnull %0, i32 noundef 1) #11
  %41 = getelementptr inbounds nuw i8, ptr %25, i64 104
  %42 = load ptr, ptr %41, align 8, !tbaa !44
  %43 = load ptr, ptr %42, align 8, !tbaa !45
  %44 = tail call ptr %43(ptr noundef nonnull %42, ptr noundef nonnull %0, i32 noundef 1) #11
  %45 = getelementptr inbounds nuw i8, ptr %25, i64 24
  %46 = load i8, ptr %45, align 8
  %47 = and i8 %46, 32
  %.not26 = icmp eq i8 %47, 0
  br i1 %.not26, label %48, label %.critedge

.critedge:                                        ; preds = %1, %26
  tail call void @agraphattr_init(ptr noundef nonnull %0) #11
  br label %48

48:                                               ; preds = %.critedge, %26
  tail call void @agmethod_init(ptr noundef nonnull %0, ptr noundef nonnull %0) #11
  ret ptr %0
}